target datalayout = "e-m:e-p270:32:32-p271:32:32-p272:64:64-i64:64-i128:128-f80:128-n8:16:32:64-S128"
target triple = "x86_64-pc-linux-gnu"

; Function Attrs: nounwind uwtable
define internal void @vp7_luma_dc_wht_dc_c(ptr noundef %0, ptr noundef %1) #1 {
  %3 = alloca ptr, align 8
  %4 = alloca ptr, align 8
  %5 = alloca i32, align 4
  %6 = alloca i32, align 4
  store ptr %0, ptr %3, align 8, !tbaa !134
  store ptr %1, ptr %4, align 8, !tbaa !134
  call void @llvm.lifetime.start.p0(i64 4, ptr %5) #6
  call void @llvm.lifetime.start.p0(i64 4, ptr %6) #6
  %7 = load ptr, ptr %4, align 8, !tbaa !134
  %8 = getelementptr inbounds i16, ptr %7, i64 0
  %9 = load i16, ptr %8, align 2, !tbaa !136
  %10 = sext i16 %9 to i32
  %11 = mul nsw i32 23170, %10
  %12 = ashr i32 %11, 14
  %13 = mul nsw i32 23170, %12
  %14 = add nsw i32 %13, 131072
  %15 = ashr i32 %14, 18
  store i32 %15, ptr %6, align 4, !tbaa !14
  %16 = load ptr, ptr %4, align 8, !tbaa !134
  %17 = getelementptr inbounds i16, ptr %16, i64 0
  store i16 0, ptr %17, align 2, !tbaa !136
  store i32 0, ptr %5, align 4, !tbaa !14
  br label %18

18:                                               ; preds = %54, %2
  %19 = load i32, ptr %5, align 4, !tbaa !14
  %20 = icmp slt i32 %19, 4
  br i1 %20, label %21, label %57

21:                                               ; preds = %18
  %22 = load i32, ptr %6, align 4, !tbaa !14
  %23 = trunc i32 %22 to i16
  %24 = load ptr, ptr %3, align 8, !tbaa !134
  %25 = load i32, ptr %5, align 4, !tbaa !14
  %26 = sext i32 %25 to i64
  %27 = getelementptr inbounds [4 x [16 x i16]], ptr %24, i64 %26
  %28 = getelementptr inbounds [4 x [16 x i16]], ptr %27, i64 0, i64 0
  %29 = getelementptr inbounds [16 x i16], ptr %28, i64 0, i64 0
  store i16 %23, ptr %29, align 2, !tbaa !136
  %30 = load i32, ptr %6, align 4, !tbaa !14
  %31 = trunc i32 %30 to i16
  %32 = load ptr, ptr %3, align 8, !tbaa !134
  %33 = load i32, ptr %5, align 4, !tbaa !14
  %34 = sext i32 %33 to i64
  %35 = getelementptr inbounds [4 x [16 x i16]], ptr %32, i64 %34
  %36 = getelementptr inbounds [4 x [16 x i16]], ptr %35, i64 0, i64 1
  %37 = getelementptr inbounds [16 x i16], ptr %36, i64 0, i64 0
  store i16 %31, ptr %37, align 2, !tbaa !136
  %38 = load i32, ptr %6, align 4, !tbaa !14
  %39 = trunc i32 %38 to i16
  %40 = load ptr, ptr %3, align 8, !tbaa !134
  %41 = load i32, ptr %5, align 4, !tbaa !14
  %42 = sext i32 %41 to i64
  %43 = getelementptr inbounds [4 x [16 x i16]], ptr %40, i64 %42
  %44 = getelementptr inbounds [4 x [16 x i16]], ptr %43, i64 0, i64 2
  %45 = getelementptr inbounds [16 x i16], ptr %44, i64 0, i64 0
  store i16 %39, ptr %45, align 2, !tbaa !136
  %46 = load i32, ptr %6, align 4, !tbaa !14
  %47 = trunc i32 %46 to i16
  %48 = load ptr, ptr %3, align 8, !tbaa !134
  %49 = load i32, ptr %5, align 4, !tbaa !14
  %50 = sext i32 %49 to i64
  %51 = getelementptr inbounds [4 x [16 x i16]], ptr %48, i64 %50
  %52 = getelementptr inbounds [4 x [16 x i16]], ptr %51, i64 0, i64 3
  %53 = getelementptr inbounds [16 x i16], ptr %52, i64 0, i64 0
  store i16 %47, ptr %53, align 2, !tbaa !136
  br label %54

54:                                               ; preds = %21
  %55 = load i32, ptr %5, align 4, !tbaa !14
  %56 = add nsw i32 %55, 1
  store i32 %56, ptr %5, align 4, !tbaa !14
  br label %18, !llvm.loop !140

57:                                               ; preds = %18
  call void @llvm.lifetime.end.p0(i64 4, ptr %6) #6
  call void @llvm.lifetime.end.p0(i64 4, ptr %5) #6
  ret void
}