; Function Attrs: nofree norecurse nosync nounwind memory(argmem: readwrite) uwtable
define internal void @vp7_luma_dc_wht_dc_c(ptr noundef writeonly captures(none) %0, ptr noundef captures(none) %1) #1 {
  %3 = load i16, ptr %1, align 2, !tbaa !126
  %4 = sext i16 %3 to i32
  %5 = mul nsw i32 %4, 23170
  %6 = ashr i32 %5, 14
  %7 = mul nsw i32 %6, 23170
  %8 = add nsw i32 %7, 131072
  %9 = ashr i32 %8, 18
  store i16 0, ptr %1, align 2, !tbaa !126
  %10 = trunc nsw i32 %9 to i16
  br label %11

11:                                               ; preds = %2, %11
  %indvars.iv = phi i64 [ 0, %2 ], [ %indvars.iv.next, %11 ]
  %12 = getelementptr inbounds nuw [4 x [16 x i16]], ptr %0, i64 %indvars.iv
  store i16 %10, ptr %12, align 2, !tbaa !126
  %13 = getelementptr inbounds nuw i8, ptr %12, i64 32
  store i16 %10, ptr %13, align 2, !tbaa !126
  %14 = getelementptr inbounds nuw i8, ptr %12, i64 64
  store i16 %10, ptr %14, align 2, !tbaa !126
  %15 = getelementptr inbounds nuw i8, ptr %12, i64 96
  store i16 %10, ptr %15, align 2, !tbaa !126
  %indvars.iv.next = add nuw nsw i64 %indvars.iv, 1
  %exitcond.not = icmp eq i64 %indvars.iv.next, 4
  br i1 %exitcond.not, label %16, label %11, !llvm.loop !130

16:                                               ; preds = %11
  ret void
}